target datalayout = "e-m:e-p270:32:32-p271:32:32-p272:64:64-i64:64-i128:128-f80:128-n8:16:32:64-S128"
target triple = "x86_64-unknown-linux-gnu"

%"class.Assimp::Compression" = type { ptr }
%"struct.Assimp::Compression::impl" = type <{ i8, [7 x i8], %struct.z_stream_s, i32, [4 x i8] }>
%struct.z_stream_s = type { ptr, i32, i64, ptr, i32, i64, ptr, ptr, ptr, ptr, ptr, i32, i64, i64 }
%"class.__gnu_cxx::__normal_iterator" = type { ptr }
%"struct.std::_Vector_base" = type { %"struct.std::_Vector_base<char, std::allocator<char>>::_Vector_impl" }
%"struct.std::_Vector_base<char, std::allocator<char>>::_Vector_impl" = type { %"struct.std::_Vector_base<char, std::allocator<char>>::_Vector_impl_data" }
%"struct.std::_Vector_base<char, std::allocator<char>>::_Vector_impl_data" = type { ptr, ptr, ptr }

@.str.1 = private unnamed_addr constant [12 x i8] c"Compression\00", align 1
@.str.2 = private unnamed_addr constant [44 x i8] c"Failure decompressing this file using gzip.\00", align 1
@_ZTI17DeadlyImportError = linkonce_odr constant { ptr, ptr, ptr } { ptr getelementptr inbounds (ptr, ptr @_ZTVN10__cxxabiv120__si_class_type_infoE, i64 2), ptr @_ZTS17DeadlyImportError, ptr @_ZTI15DeadlyErrorBase }, comdat, align 8

; Function Attrs: mustprogress nounwind uwtable
define linkonce_odr noundef ptr @_ZNKSt6vectorIcSaIcEE11_M_data_ptrIcEEPT_S4_(ptr noundef nonnull align 8 dereferenceable(24) %this, ptr noundef %__ptr) #0 comdat align 2 {
entry:
  %this.addr = alloca ptr, align 8
  %__ptr.addr = alloca ptr, align 8
  store ptr %this, ptr %this.addr, align 8
  store ptr %__ptr, ptr %__ptr.addr, align 8
  %0 = load ptr, ptr %__ptr.addr, align 8
  ret ptr %0
}

; Function Attrs: mustprogress nounwind uwtable
define linkonce_odr void @_ZN9__gnu_cxx17__normal_iteratorIPcSt6vectorIcSaIcEEEC2ERKS1_(ptr noundef nonnull align 8 dereferenceable(8) %this, ptr noundef nonnull align 8 dereferenceable(8) %__i) unnamed_addr #0 comdat align 2 {
entry:
  %this.addr = alloca ptr, align 8
  %__i.addr = alloca ptr, align 8
  store ptr %this, ptr %this.addr, align 8
  store ptr %__i, ptr %__i.addr, align 8
  %this1 = load ptr, ptr %this.addr, align 8
  %_M_current = getelementptr inbounds %"class.__gnu_cxx::__normal_iterator", ptr %this1, i32 0, i32 0
  %0 = load ptr, ptr %__i.addr, align 8
  %1 = load ptr, ptr %0, align 8
  store ptr %1, ptr %_M_current, align 8
  ret void
}

; Function Attrs: mustprogress nounwind uwtable
define linkonce_odr noundef ptr @_ZNSt6vectorIcSaIcEE4dataEv(ptr noundef nonnull align 8 dereferenceable(24) %this) #0 comdat align 2 {
entry:
  %this.addr = alloca ptr, align 8
  store ptr %this, ptr %this.addr, align 8
  %this1 = load ptr, ptr %this.addr, align 8
  %_M_impl = getelementptr inbounds %"struct.std::_Vector_base", ptr %this1, i32 0, i32 0
  %_M_start = getelementptr inbounds %"struct.std::_Vector_base<char, std::allocator<char>>::_Vector_impl_data", ptr %_M_impl, i32 0, i32 0
  %0 = load ptr, ptr %_M_start, align 8
  %call = call noundef ptr @_ZNKSt6vectorIcSaIcEE11_M_data_ptrIcEEPT_S4_(ptr noundef nonnull align 8 dereferenceable(24) %this1, ptr noundef %0) #14
  ret ptr %call
}

; Function Attrs: mustprogress nounwind uwtable
define linkonce_odr noundef nonnull align 1 dereferenceable(1) ptr @_ZNK9__gnu_cxx17__normal_iteratorIPcSt6vectorIcSaIcEEEdeEv(ptr noundef nonnull align 8 dereferenceable(8) %this) #0 comdat align 2 {
entry:
  %this.addr = alloca ptr, align 8
  store ptr %this, ptr %this.addr, align 8
  %this1 = load ptr, ptr %this.addr, align 8
  %_M_current = getelementptr inbounds %"class.__gnu_cxx::__normal_iterator", ptr %this1, i32 0, i32 0
  %0 = load ptr, ptr %_M_current, align 8
  ret ptr %0
}

; Function Attrs: mustprogress nounwind uwtable
define linkonce_odr ptr @_ZNSt6vectorIcSaIcEE5beginEv(ptr noundef nonnull align 8 dereferenceable(24) %this) #0 comdat align 2 {
entry:
  %retval = alloca %"class.__gnu_cxx::__normal_iterator", align 8
  %this.addr = alloca ptr, align 8
  store ptr %this, ptr %this.addr, align 8
  %this1 = load ptr, ptr %this.addr, align 8
  %_M_impl = getelementptr inbounds %"struct.std::_Vector_base", ptr %this1, i32 0, i32 0
  %_M_start = getelementptr inbounds %"struct.std::_Vector_base<char, std::allocator<char>>::_Vector_impl_data", ptr %_M_impl, i32 0, i32 0
  call void @_ZN9__gnu_cxx17__normal_iteratorIPcSt6vectorIcSaIcEEEC2ERKS1_(ptr noundef nonnull align 8 dereferenceable(8) %retval, ptr noundef nonnull align 8 dereferenceable(8) %_M_start) #14
  %coerce.dive = getelementptr inbounds %"class.__gnu_cxx::__normal_iterator", ptr %retval, i32 0, i32 0
  %0 = load ptr, ptr %coerce.dive, align 8
  ret ptr %0
}

; Function Attrs: mustprogress nounwind uwtable
define linkonce_odr noundef i64 @_ZNKSt6vectorIcSaIcEE4sizeEv(ptr noundef nonnull align 8 dereferenceable(24) %this) #0 comdat align 2 {
entry:
  %this.addr = alloca ptr, align 8
  store ptr %this, ptr %this.addr, align 8
  %this1 = load ptr, ptr %this.addr, align 8
  %_M_impl = getelementptr inbounds %"struct.std::_Vector_base", ptr %this1, i32 0, i32 0
  %_M_finish = getelementptr inbounds %"struct.std::_Vector_base<char, std::allocator<char>>::_Vector_impl_data", ptr %_M_impl, i32 0, i32 1
  %0 = load ptr, ptr %_M_finish, align 8
  %_M_impl2 = getelementptr inbounds %"struct.std::_Vector_base", ptr %this1, i32 0, i32 0
  %_M_start = getelementptr inbounds %"struct.std::_Vector_base<char, std::allocator<char>>::_Vector_impl_data", ptr %_M_impl2, i32 0, i32 0
  %1 = load ptr, ptr %_M_start, align 8
  %sub.ptr.lhs.cast = ptrtoint ptr %0 to i64
  %sub.ptr.rhs.cast = ptrtoint ptr %1 to i64
  %sub.ptr.sub = sub i64 %sub.ptr.lhs.cast, %sub.ptr.rhs.cast
  ret i64 %sub.ptr.sub
}

; Function Attrs: mustprogress nounwind uwtable
define internal noundef i32 @_ZN6AssimpL12getFlushModeENS_11Compression9FlushModeE(i32 noundef %flush) #0 {
entry:
  %flush.addr = alloca i32, align 4
  %z_flush = alloca i32, align 4
  store i32 %flush, ptr %flush.addr, align 4
  store i32 0, ptr %z_flush, align 4
  %0 = load i32, ptr %flush.addr, align 4
  switch i32 %0, label %sw.default [
    i32 0, label %sw.bb
    i32 1, label %sw.bb1
    i32 2, label %sw.bb2
    i32 3, label %sw.bb3
    i32 4, label %sw.bb4
  ]

sw.bb:                                            ; preds = %entry
  store i32 0, ptr %z_flush, align 4
  br label %sw.epilog

sw.bb1:                                           ; preds = %entry
  store i32 5, ptr %z_flush, align 4
  br label %sw.epilog

sw.bb2:                                           ; preds = %entry
  store i32 6, ptr %z_flush, align 4
  br label %sw.epilog

sw.bb3:                                           ; preds = %entry
  store i32 2, ptr %z_flush, align 4
  br label %sw.epilog

sw.bb4:                                           ; preds = %entry
  store i32 4, ptr %z_flush, align 4
  br label %sw.epilog

sw.default:                                       ; preds = %entry
  br label %sw.epilog

sw.epilog:                                        ; preds = %sw.default, %sw.bb4, %sw.bb3, %sw.bb2, %sw.bb1, %sw.bb
  %1 = load i32, ptr %z_flush, align 4
  ret i32 %1
}

; Function Attrs: mustprogress uwtable
define hidden noundef i64 @_ZN6Assimp11Compression10decompressEPKvmRSt6vectorIcSaIcEE(ptr noundef nonnull align 8 dereferenceable(8) %this, ptr noundef %data, i64 noundef %in, ptr noundef nonnull align 8 dereferenceable(24) %uncompressed) #2 align 2 personality ptr @__gxx_personality_v0 {
entry:
  %retval = alloca i64, align 8
  %this.addr = alloca ptr, align 8
  %data.addr = alloca ptr, align 8
  %in.addr = alloca i64, align 8
  %uncompressed.addr = alloca ptr, align 8
  %ret = alloca i32, align 4
  %total = alloca i64, align 8
  %flushMode = alloca i32, align 4
  %ref.tmp = alloca %"class.__gnu_cxx::__normal_iterator", align 8
  %exn.slot = alloca ptr, align 8
  %ehselector.slot = alloca i32, align 4
  %block = alloca [32786 x i8], align 16
  %have = alloca i64, align 8
  store ptr %this, ptr %this.addr, align 8
  store ptr %data, ptr %data.addr, align 8
  store i64 %in, ptr %in.addr, align 8
  store ptr %uncompressed, ptr %uncompressed.addr, align 8
  %this1 = load ptr, ptr %this.addr, align 8
  %0 = load ptr, ptr %data.addr, align 8
  %cmp = icmp eq ptr %0, null
  br i1 %cmp, label %if.then, label %lor.lhs.false

lor.lhs.false:                                    ; preds = %entry
  %1 = load i64, ptr %in.addr, align 8
  %cmp2 = icmp eq i64 %1, 0
  br i1 %cmp2, label %if.then, label %if.end

if.then:                                          ; preds = %lor.lhs.false, %entry
  store i64 0, ptr %retval, align 8
  br label %return

if.end:                                           ; preds = %lor.lhs.false
  %2 = load ptr, ptr %data.addr, align 8
  %mImpl = getelementptr inbounds %"class.Assimp::Compression", ptr %this1, i32 0, i32 0
  %3 = load ptr, ptr %mImpl, align 8
  %mZSstream = getelementptr inbounds %"struct.Assimp::Compression::impl", ptr %3, i32 0, i32 2
  %next_in = getelementptr inbounds %struct.z_stream_s, ptr %mZSstream, i32 0, i32 0
  store ptr %2, ptr %next_in, align 8
  %4 = load i64, ptr %in.addr, align 8
  %conv = trunc i64 %4 to i32
  %mImpl3 = getelementptr inbounds %"class.Assimp::Compression", ptr %this1, i32 0, i32 0
  %5 = load ptr, ptr %mImpl3, align 8
  %mZSstream4 = getelementptr inbounds %"struct.Assimp::Compression::impl", ptr %5, i32 0, i32 2
  %avail_in = getelementptr inbounds %struct.z_stream_s, ptr %mZSstream4, i32 0, i32 1
  store i32 %conv, ptr %avail_in, align 8
  store i32 0, ptr %ret, align 4
  store i64 0, ptr %total, align 8
  %mImpl5 = getelementptr inbounds %"class.Assimp::Compression", ptr %this1, i32 0, i32 0
  %6 = load ptr, ptr %mImpl5, align 8
  %mFlushMode = getelementptr inbounds %"struct.Assimp::Compression::impl", ptr %6, i32 0, i32 3
  %7 = load i32, ptr %mFlushMode, align 8
  %call = call noundef i32 @_ZN6AssimpL12getFlushModeENS_11Compression9FlushModeE(i32 noundef %7)
  store i32 %call, ptr %flushMode, align 4
  %8 = load i32, ptr %flushMode, align 4
  %cmp6 = icmp eq i32 %8, 4
  br i1 %cmp6, label %if.then7, label %if.else

if.then7:                                         ; preds = %if.end
  %9 = load ptr, ptr %uncompressed.addr, align 8
  %call8 = call noundef i64 @_ZNKSt6vectorIcSaIcEE4sizeEv(ptr noundef nonnull align 8 dereferenceable(24) %9) #14
  %conv9 = trunc i64 %call8 to i32
  %mImpl10 = getelementptr inbounds %"class.Assimp::Compression", ptr %this1, i32 0, i32 0
  %10 = load ptr, ptr %mImpl10, align 8
  %mZSstream11 = getelementptr inbounds %"struct.Assimp::Compression::impl", ptr %10, i32 0, i32 2
  %avail_out = getelementptr inbounds %struct.z_stream_s, ptr %mZSstream11, i32 0, i32 4
  store i32 %conv9, ptr %avail_out, align 8
  %11 = load ptr, ptr %uncompressed.addr, align 8
  %call12 = call ptr @_ZNSt6vectorIcSaIcEE5beginEv(ptr noundef nonnull align 8 dereferenceable(24) %11) #14
  %coerce.dive = getelementptr inbounds %"class.__gnu_cxx::__normal_iterator", ptr %ref.tmp, i32 0, i32 0
  store ptr %call12, ptr %coerce.dive, align 8
  %call13 = call noundef nonnull align 1 dereferenceable(1) ptr @_ZNK9__gnu_cxx17__normal_iteratorIPcSt6vectorIcSaIcEEEdeEv(ptr noundef nonnull align 8 dereferenceable(8) %ref.tmp) #14
  %mImpl14 = getelementptr inbounds %"class.Assimp::Compression", ptr %this1, i32 0, i32 0
  %12 = load ptr, ptr %mImpl14, align 8
  %mZSstream15 = getelementptr inbounds %"struct.Assimp::Compression::impl", ptr %12, i32 0, i32 2
  %next_out = getelementptr inbounds %struct.z_stream_s, ptr %mZSstream15, i32 0, i32 3
  store ptr %call13, ptr %next_out, align 8
  %mImpl16 = getelementptr inbounds %"class.Assimp::Compression", ptr %this1, i32 0, i32 0
  %13 = load ptr, ptr %mImpl16, align 8
  %mZSstream17 = getelementptr inbounds %"struct.Assimp::Compression::impl", ptr %13, i32 0, i32 2
  %call18 = call i32 @inflate(ptr noundef %mZSstream17, i32 noundef 4)
  store i32 %call18, ptr %ret, align 4
  %14 = load i32, ptr %ret, align 4
  %cmp19 = icmp ne i32 %14, 1
  br i1 %cmp19, label %land.lhs.true, label %if.end22

land.lhs.true:                                    ; preds = %if.then7
  %15 = load i32, ptr %ret, align 4
  %cmp20 = icmp ne i32 %15, 0
  br i1 %cmp20, label %if.then21, label %if.end22

if.then21:                                        ; preds = %land.lhs.true
  %exception = call ptr @__cxa_allocate_exception(i64 16) #14
  invoke void @_ZN17DeadlyImportErrorC2IJRA12_KcRA44_S1_EEEDpOT_(ptr noundef nonnull align 8 dereferenceable(16) %exception, ptr noundef nonnull align 1 dereferenceable(12) @.str.1, ptr noundef nonnull align 1 dereferenceable(44) @.str.2)
          to label %invoke.cont unwind label %lpad

invoke.cont:                                      ; preds = %if.then21
  call void @__cxa_throw(ptr %exception, ptr @_ZTI17DeadlyImportError, ptr @_ZN17DeadlyImportErrorD2Ev) #15
  unreachable

lpad:                                             ; preds = %if.then21
  %16 = landingpad { ptr, i32 }
          cleanup
  %17 = extractvalue { ptr, i32 } %16, 0
  store ptr %17, ptr %exn.slot, align 8
  %18 = extractvalue { ptr, i32 } %16, 1
  store i32 %18, ptr %ehselector.slot, align 4
  call void @__cxa_free_exception(ptr %exception) #14
  br label %eh.resume

if.end22:                                         ; preds = %land.lhs.true, %if.then7
  %mImpl23 = getelementptr inbounds %"class.Assimp::Compression", ptr %this1, i32 0, i32 0
  %19 = load ptr, ptr %mImpl23, align 8
  %mZSstream24 = getelementptr inbounds %"struct.Assimp::Compression::impl", ptr %19, i32 0, i32 2
  %avail_out25 = getelementptr inbounds %struct.z_stream_s, ptr %mZSstream24, i32 0, i32 4
  %20 = load i32, ptr %avail_out25, align 8
  %conv26 = zext i32 %20 to i64
  store i64 %conv26, ptr %total, align 8
  br label %if.end52

if.else:                                          ; preds = %if.end
  br label %do.body

do.body:                                          ; preds = %do.cond, %if.else
  call void @llvm.memset.p0.i64(ptr align 16 %block, i8 0, i64 32786, i1 false)
  %mImpl27 = getelementptr inbounds %"class.Assimp::Compression", ptr %this1, i32 0, i32 0
  %21 = load ptr, ptr %mImpl27, align 8
  %mZSstream28 = getelementptr inbounds %"struct.Assimp::Compression::impl", ptr %21, i32 0, i32 2
  %avail_out29 = getelementptr inbounds %struct.z_stream_s, ptr %mZSstream28, i32 0, i32 4
  store i32 32786, ptr %avail_out29, align 8
  %arraydecay = getelementptr inbounds [32786 x i8], ptr %block, i64 0, i64 0
  %mImpl30 = getelementptr inbounds %"class.Assimp::Compression", ptr %this1, i32 0, i32 0
  %22 = load ptr, ptr %mImpl30, align 8
  %mZSstream31 = getelementptr inbounds %"struct.Assimp::Compression::impl", ptr %22, i32 0, i32 2
  %next_out32 = getelementptr inbounds %struct.z_stream_s, ptr %mZSstream31, i32 0, i32 3
  store ptr %arraydecay, ptr %next_out32, align 8
  %mImpl33 = getelementptr inbounds %"class.Assimp::Compression", ptr %this1, i32 0, i32 0
  %23 = load ptr, ptr %mImpl33, align 8
  %mZSstream34 = getelementptr inbounds %"struct.Assimp::Compression::impl", ptr %23, i32 0, i32 2
  %24 = load i32, ptr %flushMode, align 4
  %call35 = call i32 @inflate(ptr noundef %mZSstream34, i32 noundef %24)
  store i32 %call35, ptr %ret, align 4
  %25 = load i32, ptr %ret, align 4
  %cmp36 = icmp ne i32 %25, 1
  br i1 %cmp36, label %land.lhs.true37, label %if.end43

land.lhs.true37:                                  ; preds = %do.body
  %26 = load i32, ptr %ret, align 4
  %cmp38 = icmp ne i32 %26, 0
  br i1 %cmp38, label %if.then39, label %if.end43

if.then39:                                        ; preds = %land.lhs.true37
  %exception40 = call ptr @__cxa_allocate_exception(i64 16) #14
  invoke void @_ZN17DeadlyImportErrorC2IJRA12_KcRA44_S1_EEEDpOT_(ptr noundef nonnull align 8 dereferenceable(16) %exception40, ptr noundef nonnull align 1 dereferenceable(12) @.str.1, ptr noundef nonnull align 1 dereferenceable(44) @.str.2)
          to label %invoke.cont42 unwind label %lpad41

invoke.cont42:                                    ; preds = %if.then39
  call void @__cxa_throw(ptr %exception40, ptr @_ZTI17DeadlyImportError, ptr @_ZN17DeadlyImportErrorD2Ev) #15
  unreachable

lpad41:                                           ; preds = %if.then39
  %27 = landingpad { ptr, i32 }
          cleanup
  %28 = extractvalue { ptr, i32 } %27, 0
  store ptr %28, ptr %exn.slot, align 8
  %29 = extractvalue { ptr, i32 } %27, 1
  store i32 %29, ptr %ehselector.slot, align 4
  call void @__cxa_free_exception(ptr %exception40) #14
  br label %eh.resume

if.end43:                                         ; preds = %land.lhs.true37, %do.body
  %mImpl44 = getelementptr inbounds %"class.Assimp::Compression", ptr %this1, i32 0, i32 0
  %30 = load ptr, ptr %mImpl44, align 8
  %mZSstream45 = getelementptr inbounds %"struct.Assimp::Compression::impl", ptr %30, i32 0, i32 2
  %avail_out46 = getelementptr inbounds %struct.z_stream_s, ptr %mZSstream45, i32 0, i32 4
  %31 = load i32, ptr %avail_out46, align 8
  %conv47 = zext i32 %31 to i64
  %sub = sub i64 32786, %conv47
  store i64 %sub, ptr %have, align 8
  %32 = load i64, ptr %have, align 8
  %33 = load i64, ptr %total, align 8
  %add = add i64 %33, %32
  store i64 %add, ptr %total, align 8
  %34 = load ptr, ptr %uncompressed.addr, align 8
  %35 = load i64, ptr %total, align 8
  call void @_ZNSt6vectorIcSaIcEE6resizeEm(ptr noundef nonnull align 8 dereferenceable(24) %34, i64 noundef %35)
  %36 = load ptr, ptr %uncompressed.addr, align 8
  %call48 = call noundef ptr @_ZNSt6vectorIcSaIcEE4dataEv(ptr noundef nonnull align 8 dereferenceable(24) %36) #14
  %37 = load i64, ptr %total, align 8
  %add.ptr = getelementptr inbounds i8, ptr %call48, i64 %37
  %38 = load i64, ptr %have, align 8
  %idx.neg = sub i64 0, %38
  %add.ptr49 = getelementptr inbounds i8, ptr %add.ptr, i64 %idx.neg
  %arraydecay50 = getelementptr inbounds [32786 x i8], ptr %block, i64 0, i64 0
  %39 = load i64, ptr %have, align 8
  call void @llvm.memcpy.p0.p0.i64(ptr align 1 %add.ptr49, ptr align 16 %arraydecay50, i64 %39, i1 false)
  br label %do.cond

do.cond:                                          ; preds = %if.end43
  %40 = load i32, ptr %ret, align 4
  %cmp51 = icmp ne i32 %40, 1
  br i1 %cmp51, label %do.body, label %do.end, !llvm.loop !4

do.end:                                           ; preds = %do.cond
  br label %if.end52

if.end52:                                         ; preds = %do.end, %if.end22
  %41 = load i64, ptr %total, align 8
  store i64 %41, ptr %retval, align 8
  br label %return

return:                                           ; preds = %if.end52, %if.then
  %42 = load i64, ptr %retval, align 8
  ret i64 %42

eh.resume:                                        ; preds = %lpad41, %lpad
  %exn = load ptr, ptr %exn.slot, align 8
  %sel = load i32, ptr %ehselector.slot, align 4
  %lpad.val = insertvalue { ptr, i32 } poison, ptr %exn, 0
  %lpad.val53 = insertvalue { ptr, i32 } %lpad.val, i32 %sel, 1
  resume { ptr, i32 } %lpad.val53
}