; Function Attrs: mustprogress uwtable
define hidden noundef i64 @_ZN6Assimp11Compression10decompressEPKvmRSt6vectorIcSaIcEE(ptr nocapture noundef nonnull readonly align 8 dereferenceable(8) %this, ptr noundef %data, i64 noundef %in, ptr noundef nonnull align 8 dereferenceable(24) %uncompressed) local_unnamed_addr #0 align 2 personality ptr @__gxx_personality_v0 {
entry:
  %block = alloca [32786 x i8], align 16
  %cmp = icmp eq ptr %data, null
  %cmp2 = icmp eq i64 %in, 0
  %or.cond = or i1 %cmp, %cmp2
  br i1 %or.cond, label %return, label %if.end

if.end:                                           ; preds = %entry
  %0 = load ptr, ptr %this, align 8
  %mZSstream = getelementptr inbounds i8, ptr %0, i64 8
  store ptr %data, ptr %mZSstream, align 8
  %conv = trunc i64 %in to i32
  %1 = load ptr, ptr %this, align 8
  %avail_in = getelementptr inbounds i8, ptr %1, i64 16
  store i32 %conv, ptr %avail_in, align 8
  %2 = load ptr, ptr %this, align 8
  %mFlushMode = getelementptr inbounds i8, ptr %2, i64 120
  %3 = load i32, ptr %mFlushMode, align 8
  switch i32 %3, label %_ZN6AssimpL12getFlushModeENS_11Compression9FlushModeE.exit [
    i32 4, label %if.then7
    i32 1, label %sw.bb1.i
    i32 2, label %sw.bb2.i
    i32 3, label %sw.bb3.i
  ]

sw.bb1.i:                                         ; preds = %if.end
  br label %_ZN6AssimpL12getFlushModeENS_11Compression9FlushModeE.exit

sw.bb2.i:                                         ; preds = %if.end
  br label %_ZN6AssimpL12getFlushModeENS_11Compression9FlushModeE.exit

sw.bb3.i:                                         ; preds = %if.end
  br label %_ZN6AssimpL12getFlushModeENS_11Compression9FlushModeE.exit

_ZN6AssimpL12getFlushModeENS_11Compression9FlushModeE.exit: ; preds = %if.end, %sw.bb1.i, %sw.bb2.i, %sw.bb3.i
  %z_flush.0.i = phi i32 [ 2, %sw.bb3.i ], [ 6, %sw.bb2.i ], [ 5, %sw.bb1.i ], [ 0, %if.end ]
  br label %do.body

if.then7:                                         ; preds = %if.end
  %_M_finish.i = getelementptr inbounds i8, ptr %uncompressed, i64 8
  %4 = load ptr, ptr %_M_finish.i, align 8
  %5 = load ptr, ptr %uncompressed, align 8
  %sub.ptr.lhs.cast.i = ptrtoint ptr %4 to i64
  %sub.ptr.rhs.cast.i = ptrtoint ptr %5 to i64
  %sub.ptr.sub.i = sub i64 %sub.ptr.lhs.cast.i, %sub.ptr.rhs.cast.i
  %conv9 = trunc i64 %sub.ptr.sub.i to i32
  %avail_out = getelementptr inbounds i8, ptr %2, i64 40
  store i32 %conv9, ptr %avail_out, align 8
  %6 = load ptr, ptr %uncompressed, align 8
  %7 = load ptr, ptr %this, align 8
  %next_out = getelementptr inbounds i8, ptr %7, i64 32
  store ptr %6, ptr %next_out, align 8
  %8 = load ptr, ptr %this, align 8
  %mZSstream17 = getelementptr inbounds i8, ptr %8, i64 8
  %call18 = tail call i32 @inflate(ptr noundef nonnull %mZSstream17, i32 noundef 4)
  %or.cond1 = icmp ugt i32 %call18, 1
  br i1 %or.cond1, label %if.then21, label %if.end22

if.then21:                                        ; preds = %if.then7
  %exception = tail call ptr @__cxa_allocate_exception(i64 16) #17
  invoke void @_ZN17DeadlyImportErrorC2IJRA12_KcRA44_S1_EEEDpOT_(ptr noundef nonnull align 8 dereferenceable(16) %exception, ptr noundef nonnull align 1 dereferenceable(12) @.str.1, ptr noundef nonnull align 1 dereferenceable(44) @.str.2)
          to label %invoke.cont unwind label %lpad

invoke.cont:                                      ; preds = %if.then21
  tail call void @__cxa_throw(ptr nonnull %exception, ptr nonnull @_ZTI17DeadlyImportError, ptr nonnull @_ZN17DeadlyImportErrorD2Ev) #18
  unreachable

lpad:                                             ; preds = %if.then21
  %9 = landingpad { ptr, i32 }
          cleanup
  tail call void @__cxa_free_exception(ptr %exception) #17
  br label %eh.resume

if.end22:                                         ; preds = %if.then7
  %10 = load ptr, ptr %this, align 8
  %avail_out25 = getelementptr inbounds i8, ptr %10, i64 40
  %11 = load i32, ptr %avail_out25, align 8
  %conv26 = zext i32 %11 to i64
  br label %return

do.body:                                          ; preds = %_ZN6AssimpL12getFlushModeENS_11Compression9FlushModeE.exit, %if.end43
  %total.0 = phi i64 [ 0, %_ZN6AssimpL12getFlushModeENS_11Compression9FlushModeE.exit ], [ %add, %if.end43 ]
  call void @llvm.memset.p0.i64(ptr noundef nonnull align 16 dereferenceable(32786) %block, i8 0, i64 32786, i1 false)
  %12 = load ptr, ptr %this, align 8
  %avail_out29 = getelementptr inbounds i8, ptr %12, i64 40
  store i32 32786, ptr %avail_out29, align 8
  %13 = load ptr, ptr %this, align 8
  %next_out32 = getelementptr inbounds i8, ptr %13, i64 32
  store ptr %block, ptr %next_out32, align 8
  %14 = load ptr, ptr %this, align 8
  %mZSstream34 = getelementptr inbounds i8, ptr %14, i64 8
  %call35 = call i32 @inflate(ptr noundef nonnull %mZSstream34, i32 noundef %z_flush.0.i)
  %or.cond2 = icmp ugt i32 %call35, 1
  br i1 %or.cond2, label %if.then39, label %if.end43

if.then39:                                        ; preds = %do.body
  %exception40 = call ptr @__cxa_allocate_exception(i64 16) #17
  invoke void @_ZN17DeadlyImportErrorC2IJRA12_KcRA44_S1_EEEDpOT_(ptr noundef nonnull align 8 dereferenceable(16) %exception40, ptr noundef nonnull align 1 dereferenceable(12) @.str.1, ptr noundef nonnull align 1 dereferenceable(44) @.str.2)
          to label %invoke.cont42 unwind label %lpad41

invoke.cont42:                                    ; preds = %if.then39
  call void @__cxa_throw(ptr nonnull %exception40, ptr nonnull @_ZTI17DeadlyImportError, ptr nonnull @_ZN17DeadlyImportErrorD2Ev) #18
  unreachable

lpad41:                                           ; preds = %if.then39
  %15 = landingpad { ptr, i32 }
          cleanup
  call void @__cxa_free_exception(ptr %exception40) #17
  br label %eh.resume

if.end43:                                         ; preds = %do.body
  %cmp36.not = icmp eq i32 %call35, 1
  %16 = load ptr, ptr %this, align 8
  %avail_out46 = getelementptr inbounds i8, ptr %16, i64 40
  %17 = load i32, ptr %avail_out46, align 8
  %conv47 = zext i32 %17 to i64
  %sub = sub nsw i64 32786, %conv47
  %add = add i64 %sub, %total.0
  call void @_ZNSt6vectorIcSaIcEE6resizeEm(ptr noundef nonnull align 8 dereferenceable(24) %uncompressed, i64 noundef %add)
  %18 = load ptr, ptr %uncompressed, align 8
  %add.ptr49 = getelementptr inbounds i8, ptr %18, i64 %total.0
  call void @llvm.memcpy.p0.p0.i64(ptr align 1 %add.ptr49, ptr nonnull align 16 %block, i64 %sub, i1 false)
  br i1 %cmp36.not, label %return, label %do.body, !llvm.loop !4

return:                                           ; preds = %if.end43, %if.end22, %entry
  %retval.0 = phi i64 [ 0, %entry ], [ %conv26, %if.end22 ], [ %add, %if.end43 ]
  ret i64 %retval.0

eh.resume:                                        ; preds = %lpad41, %lpad
  %.pn = phi { ptr, i32 } [ %9, %lpad ], [ %15, %lpad41 ]
  resume { ptr, i32 } %.pn
}